target datalayout = "e-m:e-p270:32:32-p271:32:32-p272:64:64-i64:64-i128:128-f80:128-n8:16:32:64-S128"
target triple = "x86_64-unknown-linux-gnu"

%class.svector.9 = type { %class.vector.10 }
%class.vector.10 = type { ptr }
%"class.sat::anf_simplifier" = type { ptr, %"struct.sat::anf_simplifier::config", %class.svector.17, %"struct.sat::anf_simplifier::stats", %class.statistics, %class.svector.9, i32, %class.svector.17 }
%"struct.sat::anf_simplifier::config" = type { i32, i32, i8, i8, i8, i8 }
%"struct.sat::anf_simplifier::stats" = type { i32, i32, i32, i32, i32, i32 }
%class.statistics = type { %class.svector.19, %class.svector.21 }
%class.svector.19 = type { %class.vector.20 }
%class.vector.20 = type { ptr }
%class.svector.21 = type { %class.vector.22 }
%class.vector.22 = type { ptr }
%class.svector.17 = type { %class.vector.18 }
%class.vector.18 = type { ptr }

; Function Attrs: mustprogress nounwind uwtable
define linkonce_odr hidden void @_ZN6vectorIjLb0EjE5resetEv(ptr noundef nonnull align 8 dereferenceable(8) %this) #4 comdat align 2 {
entry:
  %this.addr = alloca ptr, align 8
  store ptr %this, ptr %this.addr, align 8
  %this1 = load ptr, ptr %this.addr, align 8
  %m_data = getelementptr inbounds %class.vector.10, ptr %this1, i32 0, i32 0
  %0 = load ptr, ptr %m_data, align 8
  %tobool = icmp ne ptr %0, null
  br i1 %tobool, label %if.then, label %if.end

if.then:                                          ; preds = %entry
  %m_data2 = getelementptr inbounds %class.vector.10, ptr %this1, i32 0, i32 0
  %1 = load ptr, ptr %m_data2, align 8
  %arrayidx = getelementptr inbounds i32, ptr %1, i64 -1
  store i32 0, ptr %arrayidx, align 4
  br label %if.end

if.end:                                           ; preds = %if.then, %entry
  ret void
}

; Function Attrs: mustprogress uwtable
define hidden void @_ZN3sat14anf_simplifier10reset_evalEv(ptr noundef nonnull align 8 dereferenceable(96) %this) #5 align 2 {
entry:
  %this.addr = alloca ptr, align 8
  store ptr %this, ptr %this.addr, align 8
  %this1 = load ptr, ptr %this.addr, align 8
  %m_eval_ts = getelementptr inbounds %"class.sat::anf_simplifier", ptr %this1, i32 0, i32 6
  %0 = load i32, ptr %m_eval_ts, align 8
  %add = add i32 %0, 2
  %m_eval_ts2 = getelementptr inbounds %"class.sat::anf_simplifier", ptr %this1, i32 0, i32 6
  %1 = load i32, ptr %m_eval_ts2, align 8
  %cmp = icmp ult i32 %add, %1
  br i1 %cmp, label %if.then, label %if.end

if.then:                                          ; preds = %entry
  %m_eval_cache = getelementptr inbounds %"class.sat::anf_simplifier", ptr %this1, i32 0, i32 5
  call void @_ZN6vectorIjLb0EjE5resetEv(ptr noundef nonnull align 8 dereferenceable(8) %m_eval_cache)
  %m_eval_ts3 = getelementptr inbounds %"class.sat::anf_simplifier", ptr %this1, i32 0, i32 6
  store i32 0, ptr %m_eval_ts3, align 8
  br label %if.end

if.end:                                           ; preds = %if.then, %entry
  %m_eval_ts4 = getelementptr inbounds %"class.sat::anf_simplifier", ptr %this1, i32 0, i32 6
  %2 = load i32, ptr %m_eval_ts4, align 8
  %add5 = add i32 %2, 2
  store i32 %add5, ptr %m_eval_ts4, align 8
  ret void
}