; Function Attrs: mustprogress nofree norecurse nosync nounwind willreturn memory(write, argmem: readwrite, inaccessiblemem: none) uwtable
define hidden void @_ZN3sat14anf_simplifier10reset_evalEv(ptr nocapture noundef nonnull align 8 dereferenceable(96) %this) local_unnamed_addr #6 align 2 {
entry:
  %m_eval_ts = getelementptr inbounds i8, ptr %this, i64 80
  %0 = load i32, ptr %m_eval_ts, align 8
  %cmp = icmp ugt i32 %0, -3
  br i1 %cmp, label %if.then, label %if.end

if.then:                                          ; preds = %entry
  %m_eval_cache = getelementptr inbounds i8, ptr %this, i64 72
  %1 = load ptr, ptr %m_eval_cache, align 8
  %tobool.not.i = icmp eq ptr %1, null
  br i1 %tobool.not.i, label %if.end, label %if.then.i

if.then.i:                                        ; preds = %if.then
  %arrayidx.i = getelementptr inbounds i8, ptr %1, i64 -4
  store i32 0, ptr %arrayidx.i, align 4
  br label %if.end

if.end:                                           ; preds = %if.then.i, %if.then, %entry
  %2 = phi i32 [ %0, %entry ], [ 0, %if.then ], [ 0, %if.then.i ]
  %add5 = add nuw i32 %2, 2
  store i32 %add5, ptr %m_eval_ts, align 8
  ret void
}